; ModuleID = '9/423.c'
source_filename = "9/423.c"
target datalayout = "e-m:e-p270:32:32-p271:32:32-p272:64:64-i64:64-f80:128-n8:16:32:64-S128"
target triple = "x86_64-pc-linux-gnu"

%struct.br = type { [10 x i8], i32 }

@.str = private unnamed_addr constant [3 x i8] c"%d\00", align 1
@.str.1 = private unnamed_addr constant [5 x i8] c"%s%d\00", align 1
@.str.2 = private unnamed_addr constant [4 x i8] c"%s\0A\00", align 1

; Function Attrs: noinline nounwind uwtable
define dso_local i32 @main() #0 {
  %1 = alloca i32, align 4
  %2 = alloca %struct.br*, align 8
  %3 = alloca %struct.br, align 4
  %4 = alloca i32, align 4
  %5 = alloca i32, align 4
  %6 = alloca i32, align 4
  store i32 0, i32* %1, align 4
  %7 = call i32 (i8*, ...) @__isoc99_scanf(i8* getelementptr inbounds ([3 x i8], [3 x i8]* @.str, i64 0, i64 0), i32* %4)
  %8 = load i32, i32* %4, align 4
  %9 = sext i32 %8 to i64
  %10 = mul i64 16, %9
  %11 = call noalias i8* @malloc(i64 %10) #4
  %12 = bitcast i8* %11 to %struct.br*
  store %struct.br* %12, %struct.br** %2, align 8
  store i32 0, i32* %5, align 4
  br label %13

13:                                               ; preds = %30, %0
  %14 = load i32, i32* %5, align 4
  %15 = load i32, i32* %4, align 4
  %16 = icmp slt i32 %14, %15
  br i1 %16, label %17, label %33

17:                                               ; preds = %13
  %18 = load %struct.br*, %struct.br** %2, align 8
  %19 = load i32, i32* %5, align 4
  %20 = sext i32 %19 to i64
  %21 = getelementptr inbounds %struct.br, %struct.br* %18, i64 %20
  %22 = getelementptr inbounds %struct.br, %struct.br* %21, i32 0, i32 0
  %23 = getelementptr inbounds [10 x i8], [10 x i8]* %22, i64 0, i64 0
  %24 = load %struct.br*, %struct.br** %2, align 8
  %25 = load i32, i32* %5, align 4
  %26 = sext i32 %25 to i64
  %27 = getelementptr inbounds %struct.br, %struct.br* %24, i64 %26
  %28 = getelementptr inbounds %struct.br, %struct.br* %27, i32 0, i32 1
  %29 = call i32 (i8*, ...) @__isoc99_scanf(i8* getelementptr inbounds ([5 x i8], [5 x i8]* @.str.1, i64 0, i64 0), i8* %23, i32* %28)
  br label %30

30:                                               ; preds = %17
  %31 = load i32, i32* %5, align 4
  %32 = add nsw i32 %31, 1
  store i32 %32, i32* %5, align 4
  br label %13

33:                                               ; preds = %13
  store i32 0, i32* %5, align 4
  br label %34

34:                                               ; preds = %98, %33
  %35 = load i32, i32* %5, align 4
  %36 = load i32, i32* %4, align 4
  %37 = icmp slt i32 %35, %36
  br i1 %37, label %38, label %101

38:                                               ; preds = %34
  %39 = load i32, i32* %4, align 4
  %40 = sub nsw i32 %39, 1
  store i32 %40, i32* %6, align 4
  br label %41

41:                                               ; preds = %94, %38
  %42 = load i32, i32* %6, align 4
  %43 = load i32, i32* %5, align 4
  %44 = icmp sgt i32 %42, %43
  br i1 %44, label %45, label %97

45:                                               ; preds = %41
  %46 = load %struct.br*, %struct.br** %2, align 8
  %47 = load i32, i32* %6, align 4
  %48 = sext i32 %47 to i64
  %49 = getelementptr inbounds %struct.br, %struct.br* %46, i64 %48
  %50 = getelementptr inbounds %struct.br, %struct.br* %49, i32 0, i32 1
  %51 = load i32, i32* %50, align 4
  %52 = icmp sge i32 %51, 60
  br i1 %52, label %53, label %93

53:                                               ; preds = %45
  %54 = load %struct.br*, %struct.br** %2, align 8
  %55 = load i32, i32* %6, align 4
  %56 = sext i32 %55 to i64
  %57 = getelementptr inbounds %struct.br, %struct.br* %54, i64 %56
  %58 = getelementptr inbounds %struct.br, %struct.br* %57, i32 0, i32 1
  %59 = load i32, i32* %58, align 4
  %60 = load %struct.br*, %struct.br** %2, align 8
  %61 = load i32, i32* %6, align 4
  %62 = sub nsw i32 %61, 1
  %63 = sext i32 %62 to i64
  %64 = getelementptr inbounds %struct.br, %struct.br* %60, i64 %63
  %65 = getelementptr inbounds %struct.br, %struct.br* %64, i32 0, i32 1
  %66 = load i32, i32* %65, align 4
  %67 = icmp sgt i32 %59, %66
  br i1 %67, label %68, label %93

68:                                               ; preds = %53
  %69 = load %struct.br*, %struct.br** %2, align 8
  %70 = load i32, i32* %6, align 4
  %71 = sext i32 %70 to i64
  %72 = getelementptr inbounds %struct.br, %struct.br* %69, i64 %71
  %73 = bitcast %struct.br* %3 to i8*
  %74 = bitcast %struct.br* %72 to i8*
  call void @llvm.memcpy.p0i8.p0i8.i64(i8* align 4 %73, i8* align 4 %74, i64 16, i1 false)
  %75 = load %struct.br*, %struct.br** %2, align 8
  %76 = load i32, i32* %6, align 4
  %77 = sext i32 %76 to i64
  %78 = getelementptr inbounds %struct.br, %struct.br* %75, i64 %77
  %79 = load %struct.br*, %struct.br** %2, align 8
  %80 = load i32, i32* %6, align 4
  %81 = sub nsw i32 %80, 1
  %82 = sext i32 %81 to i64
  %83 = getelementptr inbounds %struct.br, %struct.br* %79, i64 %82
  %84 = bitcast %struct.br* %78 to i8*
  %85 = bitcast %struct.br* %83 to i8*
  call void @llvm.memcpy.p0i8.p0i8.i64(i8* align 4 %84, i8* align 4 %85, i64 16, i1 false)
  %86 = load %struct.br*, %struct.br** %2, align 8
  %87 = load i32, i32* %6, align 4
  %88 = sub nsw i32 %87, 1
  %89 = sext i32 %88 to i64
  %90 = getelementptr inbounds %struct.br, %struct.br* %86, i64 %89
  %91 = bitcast %struct.br* %90 to i8*
  %92 = bitcast %struct.br* %3 to i8*
  call void @llvm.memcpy.p0i8.p0i8.i64(i8* align 4 %91, i8* align 4 %92, i64 16, i1 false)
  br label %93

93:                                               ; preds = %68, %53, %45
  br label %94

94:                                               ; preds = %93
  %95 = load i32, i32* %6, align 4
  %96 = add nsw i32 %95, -1
  store i32 %96, i32* %6, align 4
  br label %41

97:                                               ; preds = %41
  br label %98

98:                                               ; preds = %97
  %99 = load i32, i32* %5, align 4
  %100 = add nsw i32 %99, 1
  store i32 %100, i32* %5, align 4
  br label %34

101:                                              ; preds = %34
  store i32 0, i32* %5, align 4
  br label %102

102:                                              ; preds = %114, %101
  %103 = load i32, i32* %5, align 4
  %104 = load i32, i32* %4, align 4
  %105 = icmp slt i32 %103, %104
  br i1 %105, label %106, label %117

106:                                              ; preds = %102
  %107 = load %struct.br*, %struct.br** %2, align 8
  %108 = load i32, i32* %5, align 4
  %109 = sext i32 %108 to i64
  %110 = getelementptr inbounds %struct.br, %struct.br* %107, i64 %109
  %111 = getelementptr inbounds %struct.br, %struct.br* %110, i32 0, i32 0
  %112 = getelementptr inbounds [10 x i8], [10 x i8]* %111, i64 0, i64 0
  %113 = call i32 (i8*, ...) @printf(i8* getelementptr inbounds ([4 x i8], [4 x i8]* @.str.2, i64 0, i64 0), i8* %112)
  br label %114

114:                                              ; preds = %106
  %115 = load i32, i32* %5, align 4
  %116 = add nsw i32 %115, 1
  store i32 %116, i32* %5, align 4
  br label %102

117:                                              ; preds = %102
  ret i32 0
}

declare dso_local i32 @__isoc99_scanf(i8*, ...) #1

; Function Attrs: nounwind
declare dso_local noalias i8* @malloc(i64) #2

; Function Attrs: argmemonly nounwind willreturn
declare void @llvm.memcpy.p0i8.p0i8.i64(i8* noalias nocapture writeonly, i8* noalias nocapture readonly, i64, i1 immarg) #3

declare dso_local i32 @printf(i8*, ...) #1


!llvm.module.flags = !{!0}
!llvm.ident = !{!1}

!0 = !{i32 1, !"wchar_size", i32 4}
!1 = !{!"clang version 10.0.0-4ubuntu1 "}
