; ModuleID = 'source-C-CXX/8/423.c'
source_filename = "source-C-CXX/8/423.c"
target datalayout = "e-m:e-p270:32:32-p271:32:32-p272:64:64-i64:64-f80:128-n8:16:32:64-S128"
target triple = "x86_64-pc-linux-gnu"

%struct.br = type { [10 x i8], i32 }

@.str = private unnamed_addr constant [3 x i8] c"%d\00", align 1
@.str.1 = private unnamed_addr constant [5 x i8] c"%s%d\00", align 1

; Function Attrs: nofree nounwind sspstrong uwtable
define dso_local i32 @main() local_unnamed_addr #0 {
  %1 = alloca %struct.br, align 4
  %2 = alloca i32, align 4
  %3 = getelementptr inbounds %struct.br, %struct.br* %1, i64 0, i32 0, i64 0
  call void @llvm.lifetime.start.p0i8(i64 16, i8* nonnull %3)
  %4 = bitcast i32* %2 to i8*
  call void @llvm.lifetime.start.p0i8(i64 4, i8* nonnull %4) #6
  %5 = call i32 (i8*, ...) @__isoc99_scanf(i8* getelementptr inbounds ([3 x i8], [3 x i8]* @.str, i64 0, i64 0), i32* nonnull %2)
  %6 = load i32, i32* %2, align 4, !tbaa !5
  %7 = sext i32 %6 to i64
  %8 = shl nsw i64 %7, 4
  %9 = call noalias align 16 i8* @malloc(i64 %8) #6
  %10 = bitcast i8* %9 to %struct.br*
  %11 = icmp sgt i32 %6, 0
  br i1 %11, label %20, label %64

12:                                               ; preds = %20
  %13 = add nsw i32 %26, -1
  %14 = icmp sgt i32 %26, 0
  br i1 %14, label %15, label %64

15:                                               ; preds = %12
  %16 = zext i32 %26 to i64
  %17 = add nsw i64 %16, -1
  %18 = zext i32 %13 to i64
  %19 = zext i32 %26 to i64
  br label %29

20:                                               ; preds = %0, %20
  %21 = phi i64 [ %25, %20 ], [ 0, %0 ]
  %22 = getelementptr inbounds %struct.br, %struct.br* %10, i64 %21, i32 0, i64 0
  %23 = getelementptr inbounds %struct.br, %struct.br* %10, i64 %21, i32 1
  %24 = call i32 (i8*, ...) @__isoc99_scanf(i8* getelementptr inbounds ([5 x i8], [5 x i8]* @.str.1, i64 0, i64 0), i8* %22, i32* nonnull %23)
  %25 = add nuw nsw i64 %21, 1
  %26 = load i32, i32* %2, align 4, !tbaa !5
  %27 = sext i32 %26 to i64
  %28 = icmp slt i64 %25, %27
  br i1 %28, label %20, label %12, !llvm.loop !9

29:                                               ; preds = %15, %53
  %30 = phi i64 [ 0, %15 ], [ %54, %53 ]
  %31 = icmp ult i64 %30, %18
  br i1 %31, label %33, label %53

32:                                               ; preds = %53
  br i1 %14, label %56, label %64

33:                                               ; preds = %29, %49
  %34 = phi i64 [ %50, %49 ], [ %17, %29 ]
  %35 = phi i32 [ %51, %49 ], [ %13, %29 ]
  %36 = phi i32 [ %35, %49 ], [ %26, %29 ]
  %37 = getelementptr inbounds %struct.br, %struct.br* %10, i64 %34, i32 1
  %38 = load i32, i32* %37, align 4, !tbaa !11
  %39 = icmp sgt i32 %38, 59
  br i1 %39, label %40, label %49

40:                                               ; preds = %33
  %41 = add nsw i32 %36, -2
  %42 = sext i32 %41 to i64
  %43 = getelementptr inbounds %struct.br, %struct.br* %10, i64 %42, i32 1
  %44 = load i32, i32* %43, align 4, !tbaa !11
  %45 = icmp sgt i32 %38, %44
  br i1 %45, label %46, label %49

46:                                               ; preds = %40
  %47 = getelementptr inbounds %struct.br, %struct.br* %10, i64 %34, i32 0, i64 0
  call void @llvm.memcpy.p0i8.p0i8.i64(i8* noundef nonnull align 4 dereferenceable(16) %3, i8* noundef nonnull align 16 dereferenceable(16) %47, i64 16, i1 false), !tbaa.struct !13
  %48 = getelementptr inbounds %struct.br, %struct.br* %10, i64 %42, i32 0, i64 0
  call void @llvm.memcpy.p0i8.p0i8.i64(i8* noundef nonnull align 16 dereferenceable(16) %47, i8* noundef nonnull align 16 dereferenceable(16) %48, i64 16, i1 false), !tbaa.struct !13
  call void @llvm.memcpy.p0i8.p0i8.i64(i8* noundef nonnull align 16 dereferenceable(16) %48, i8* noundef nonnull align 4 dereferenceable(16) %3, i64 16, i1 false), !tbaa.struct !13
  br label %49

49:                                               ; preds = %33, %40, %46
  %50 = add nsw i64 %34, -1
  %51 = add nsw i32 %35, -1
  %52 = icmp sgt i64 %50, %30
  br i1 %52, label %33, label %53, !llvm.loop !15

53:                                               ; preds = %49, %29
  %54 = add nuw nsw i64 %30, 1
  %55 = icmp eq i64 %54, %19
  br i1 %55, label %32, label %29, !llvm.loop !16

56:                                               ; preds = %32, %56
  %57 = phi i64 [ %60, %56 ], [ 0, %32 ]
  %58 = getelementptr inbounds %struct.br, %struct.br* %10, i64 %57, i32 0, i64 0
  %59 = call i32 @puts(i8* nonnull dereferenceable(1) %58)
  %60 = add nuw nsw i64 %57, 1
  %61 = load i32, i32* %2, align 4, !tbaa !5
  %62 = sext i32 %61 to i64
  %63 = icmp slt i64 %60, %62
  br i1 %63, label %56, label %64, !llvm.loop !17

64:                                               ; preds = %56, %12, %0, %32
  call void @llvm.lifetime.end.p0i8(i64 4, i8* nonnull %4) #6
  call void @llvm.lifetime.end.p0i8(i64 16, i8* nonnull %3)
  ret i32 0
}

; Function Attrs: argmemonly mustprogress nofree nosync nounwind willreturn
declare void @llvm.lifetime.start.p0i8(i64 immarg, i8* nocapture) #1

; Function Attrs: nofree nounwind
declare noundef i32 @__isoc99_scanf(i8* nocapture noundef readonly, ...) local_unnamed_addr #2

; Function Attrs: inaccessiblememonly mustprogress nofree nounwind willreturn
declare noalias noundef align 16 i8* @malloc(i64 noundef) local_unnamed_addr #3

; Function Attrs: argmemonly mustprogress nofree nounwind willreturn
declare void @llvm.memcpy.p0i8.p0i8.i64(i8* noalias nocapture writeonly, i8* noalias nocapture readonly, i64, i1 immarg) #4

; Function Attrs: argmemonly mustprogress nofree nosync nounwind willreturn
declare void @llvm.lifetime.end.p0i8(i64 immarg, i8* nocapture) #1

; Function Attrs: nofree nounwind
declare noundef i32 @puts(i8* nocapture noundef readonly) local_unnamed_addr #5


!llvm.module.flags = !{!0, !1, !2, !3}
!llvm.ident = !{!4}

!0 = !{i32 1, !"wchar_size", i32 4}
!1 = !{i32 7, !"PIC Level", i32 2}
!2 = !{i32 7, !"PIE Level", i32 2}
!3 = !{i32 7, !"uwtable", i32 1}
!4 = !{!"clang version 13.0.0"}
!5 = !{!6, !6, i64 0}
!6 = !{!"int", !7, i64 0}
!7 = !{!"omnipotent char", !8, i64 0}
!8 = !{!"Simple C/C++ TBAA"}
!9 = distinct !{!9, !10}
!10 = !{!"llvm.loop.mustprogress"}
!11 = !{!12, !6, i64 12}
!12 = !{!"br", !7, i64 0, !6, i64 12}
!13 = !{i64 0, i64 10, !14, i64 12, i64 4, !5}
!14 = !{!7, !7, i64 0}
!15 = distinct !{!15, !10}
!16 = distinct !{!16, !10}
!17 = distinct !{!17, !10}
